; Function Attrs: nounwind sspstrong uwtable
define internal i64 @etc_sysconf(i64 %0, i64 noundef %1) #0 {
  %3 = and i64 %1, 1
  %.not.i = icmp eq i64 %3, 0
  br i1 %.not.i, label %6, label %4

4:                                                ; preds = %2
  %5 = tail call i64 @rb_fix2int(i64 noundef %1) #13
  br label %rb_num2int_inline.exit

6:                                                ; preds = %2
  %7 = tail call i64 @rb_num2int(i64 noundef %1) #13
  br label %rb_num2int_inline.exit

rb_num2int_inline.exit:                           ; preds = %4, %6
  %.0.i = phi i64 [ %5, %4 ], [ %7, %6 ]
  %8 = trunc i64 %.0.i to i32
  %9 = tail call ptr @rb_errno_ptr() #13
  store i32 0, ptr %9, align 4, !tbaa !21
  %10 = tail call i64 @sysconf(i32 noundef %8) #13
  %11 = icmp eq i64 %10, -1
  br i1 %11, label %12, label %17

12:                                               ; preds = %rb_num2int_inline.exit
  %13 = tail call ptr @rb_errno_ptr() #13
  %14 = load i32, ptr %13, align 4, !tbaa !21
  %15 = icmp eq i32 %14, 0
  br i1 %15, label %rb_long2num_inline.exit, label %16

16:                                               ; preds = %12
  tail call void @rb_sys_fail(ptr noundef nonnull @.str.19) #15
  unreachable

17:                                               ; preds = %rb_num2int_inline.exit
  %18 = add i64 %10, 4611686018427387904
  %or.cond.i = icmp sgt i64 %18, -1
  br i1 %or.cond.i, label %19, label %22

19:                                               ; preds = %17
  %20 = shl nsw i64 %10, 1
  %21 = or disjoint i64 %20, 1
  br label %rb_long2num_inline.exit

22:                                               ; preds = %17
  %23 = tail call i64 @rb_int2big(i64 noundef range(i64 0, -1) %10) #13
  br label %rb_long2num_inline.exit

rb_long2num_inline.exit:                          ; preds = %22, %19, %12
  %.0 = phi i64 [ 4, %12 ], [ %21, %19 ], [ %23, %22 ]
  ret i64 %.0
}